target datalayout = "e-m:e-p270:32:32-p271:32:32-p272:64:64-i64:64-i128:128-f80:128-n8:16:32:64-S128"
target triple = "x86_64-pc-linux-gnu"

%struct.PlanState = type { i32, ptr, ptr, ptr, ptr, ptr, ptr, ptr, ptr, ptr, ptr, ptr, ptr, ptr, ptr, ptr, ptr, ptr, i8, ptr, ptr, ptr, ptr, ptr, i8, i8, i8, i8, i8, i8, i8, i8 }
%struct.Plan = type { i32, i32, double, double, double, i32, i8, i8, i8, i32, ptr, ptr, ptr, ptr, ptr, ptr, ptr }
%struct.Node = type { i32 }

; Function Attrs: nounwind uwtable
define internal zeroext i1 @ExecParallelInitializeWorker(ptr noundef %0, ptr noundef %1) #0 {
  %3 = alloca i1, align 1
  %4 = alloca ptr, align 8
  %5 = alloca ptr, align 8
  store ptr %0, ptr %4, align 8
  store ptr %1, ptr %5, align 8
  %6 = load ptr, ptr %4, align 8
  %7 = icmp eq ptr %6, null
  br i1 %7, label %8, label %9

8:                                                ; preds = %2
  store i1 false, ptr %3, align 1
  br label %121

9:                                                ; preds = %2
  %10 = load ptr, ptr %4, align 8
  %11 = getelementptr inbounds nuw %struct.Node, ptr %10, i32 0, i32 0
  %12 = load i32, ptr %11, align 4
  switch i32 %12, label %116 [
    i32 402, label %13
    i32 404, label %24
    i32 405, label %35
    i32 417, label %46
    i32 396, label %57
    i32 418, label %68
    i32 407, label %79
    i32 422, label %90
    i32 433, label %101
    i32 425, label %104
    i32 426, label %107
    i32 428, label %110
    i32 424, label %113
  ]

13:                                               ; preds = %9
  %14 = load ptr, ptr %4, align 8
  %15 = getelementptr inbounds nuw %struct.PlanState, ptr %14, i32 0, i32 1
  %16 = load ptr, ptr %15, align 8
  %17 = getelementptr inbounds nuw %struct.Plan, ptr %16, i32 0, i32 6
  %18 = load i8, ptr %17, align 4, !range !7, !noundef !8
  %19 = trunc i8 %18 to i1
  br i1 %19, label %20, label %23

20:                                               ; preds = %13
  %21 = load ptr, ptr %4, align 8
  %22 = load ptr, ptr %5, align 8
  call void @ExecSeqScanInitializeWorker(ptr noundef %21, ptr noundef %22)
  br label %23

23:                                               ; preds = %20, %13
  br label %117

24:                                               ; preds = %9
  %25 = load ptr, ptr %4, align 8
  %26 = getelementptr inbounds nuw %struct.PlanState, ptr %25, i32 0, i32 1
  %27 = load ptr, ptr %26, align 8
  %28 = getelementptr inbounds nuw %struct.Plan, ptr %27, i32 0, i32 6
  %29 = load i8, ptr %28, align 4, !range !7, !noundef !8
  %30 = trunc i8 %29 to i1
  br i1 %30, label %31, label %34

31:                                               ; preds = %24
  %32 = load ptr, ptr %4, align 8
  %33 = load ptr, ptr %5, align 8
  call void @ExecIndexScanInitializeWorker(ptr noundef %32, ptr noundef %33)
  br label %34

34:                                               ; preds = %31, %24
  br label %117

35:                                               ; preds = %9
  %36 = load ptr, ptr %4, align 8
  %37 = getelementptr inbounds nuw %struct.PlanState, ptr %36, i32 0, i32 1
  %38 = load ptr, ptr %37, align 8
  %39 = getelementptr inbounds nuw %struct.Plan, ptr %38, i32 0, i32 6
  %40 = load i8, ptr %39, align 4, !range !7, !noundef !8
  %41 = trunc i8 %40 to i1
  br i1 %41, label %42, label %45

42:                                               ; preds = %35
  %43 = load ptr, ptr %4, align 8
  %44 = load ptr, ptr %5, align 8
  call void @ExecIndexOnlyScanInitializeWorker(ptr noundef %43, ptr noundef %44)
  br label %45

45:                                               ; preds = %42, %35
  br label %117

46:                                               ; preds = %9
  %47 = load ptr, ptr %4, align 8
  %48 = getelementptr inbounds nuw %struct.PlanState, ptr %47, i32 0, i32 1
  %49 = load ptr, ptr %48, align 8
  %50 = getelementptr inbounds nuw %struct.Plan, ptr %49, i32 0, i32 6
  %51 = load i8, ptr %50, align 4, !range !7, !noundef !8
  %52 = trunc i8 %51 to i1
  br i1 %52, label %53, label %56

53:                                               ; preds = %46
  %54 = load ptr, ptr %4, align 8
  %55 = load ptr, ptr %5, align 8
  call void @ExecForeignScanInitializeWorker(ptr noundef %54, ptr noundef %55)
  br label %56

56:                                               ; preds = %53, %46
  br label %117

57:                                               ; preds = %9
  %58 = load ptr, ptr %4, align 8
  %59 = getelementptr inbounds nuw %struct.PlanState, ptr %58, i32 0, i32 1
  %60 = load ptr, ptr %59, align 8
  %61 = getelementptr inbounds nuw %struct.Plan, ptr %60, i32 0, i32 6
  %62 = load i8, ptr %61, align 4, !range !7, !noundef !8
  %63 = trunc i8 %62 to i1
  br i1 %63, label %64, label %67

64:                                               ; preds = %57
  %65 = load ptr, ptr %4, align 8
  %66 = load ptr, ptr %5, align 8
  call void @ExecAppendInitializeWorker(ptr noundef %65, ptr noundef %66)
  br label %67

67:                                               ; preds = %64, %57
  br label %117

68:                                               ; preds = %9
  %69 = load ptr, ptr %4, align 8
  %70 = getelementptr inbounds nuw %struct.PlanState, ptr %69, i32 0, i32 1
  %71 = load ptr, ptr %70, align 8
  %72 = getelementptr inbounds nuw %struct.Plan, ptr %71, i32 0, i32 6
  %73 = load i8, ptr %72, align 4, !range !7, !noundef !8
  %74 = trunc i8 %73 to i1
  br i1 %74, label %75, label %78

75:                                               ; preds = %68
  %76 = load ptr, ptr %4, align 8
  %77 = load ptr, ptr %5, align 8
  call void @ExecCustomScanInitializeWorker(ptr noundef %76, ptr noundef %77)
  br label %78

78:                                               ; preds = %75, %68
  br label %117

79:                                               ; preds = %9
  %80 = load ptr, ptr %4, align 8
  %81 = getelementptr inbounds nuw %struct.PlanState, ptr %80, i32 0, i32 1
  %82 = load ptr, ptr %81, align 8
  %83 = getelementptr inbounds nuw %struct.Plan, ptr %82, i32 0, i32 6
  %84 = load i8, ptr %83, align 4, !range !7, !noundef !8
  %85 = trunc i8 %84 to i1
  br i1 %85, label %86, label %89

86:                                               ; preds = %79
  %87 = load ptr, ptr %4, align 8
  %88 = load ptr, ptr %5, align 8
  call void @ExecBitmapHeapInitializeWorker(ptr noundef %87, ptr noundef %88)
  br label %89

89:                                               ; preds = %86, %79
  br label %117

90:                                               ; preds = %9
  %91 = load ptr, ptr %4, align 8
  %92 = getelementptr inbounds nuw %struct.PlanState, ptr %91, i32 0, i32 1
  %93 = load ptr, ptr %92, align 8
  %94 = getelementptr inbounds nuw %struct.Plan, ptr %93, i32 0, i32 6
  %95 = load i8, ptr %94, align 4, !range !7, !noundef !8
  %96 = trunc i8 %95 to i1
  br i1 %96, label %97, label %100

97:                                               ; preds = %90
  %98 = load ptr, ptr %4, align 8
  %99 = load ptr, ptr %5, align 8
  call void @ExecHashJoinInitializeWorker(ptr noundef %98, ptr noundef %99)
  br label %100

100:                                              ; preds = %97, %90
  br label %117

101:                                              ; preds = %9
  %102 = load ptr, ptr %4, align 8
  %103 = load ptr, ptr %5, align 8
  call void @ExecHashInitializeWorker(ptr noundef %102, ptr noundef %103)
  br label %117

104:                                              ; preds = %9
  %105 = load ptr, ptr %4, align 8
  %106 = load ptr, ptr %5, align 8
  call void @ExecSortInitializeWorker(ptr noundef %105, ptr noundef %106)
  br label %117

107:                                              ; preds = %9
  %108 = load ptr, ptr %4, align 8
  %109 = load ptr, ptr %5, align 8
  call void @ExecIncrementalSortInitializeWorker(ptr noundef %108, ptr noundef %109)
  br label %117

110:                                              ; preds = %9
  %111 = load ptr, ptr %4, align 8
  %112 = load ptr, ptr %5, align 8
  call void @ExecAggInitializeWorker(ptr noundef %111, ptr noundef %112)
  br label %117

113:                                              ; preds = %9
  %114 = load ptr, ptr %4, align 8
  %115 = load ptr, ptr %5, align 8
  call void @ExecMemoizeInitializeWorker(ptr noundef %114, ptr noundef %115)
  br label %117

116:                                              ; preds = %9
  br label %117

117:                                              ; preds = %116, %113, %110, %107, %104, %101, %100, %89, %78, %67, %56, %45, %34, %23
  %118 = load ptr, ptr %4, align 8
  %119 = load ptr, ptr %5, align 8
  %120 = call zeroext i1 @planstate_tree_walker_impl(ptr noundef %118, ptr noundef @ExecParallelInitializeWorker, ptr noundef %119)
  store i1 %120, ptr %3, align 1
  br label %121

121:                                              ; preds = %117, %8
  %122 = load i1, ptr %3, align 1
  ret i1 %122
}