; Function Attrs: nounwind uwtable
define internal zeroext i1 @ExecParallelInitializeWorker(ptr noundef %0, ptr noundef %1) #0 {
  %3 = icmp eq ptr %0, null
  br i1 %3, label %69, label %4

4:                                                ; preds = %2
  %5 = load i32, ptr %0, align 4
  switch i32 %5, label %67 [
    i32 402, label %6
    i32 404, label %13
    i32 405, label %20
    i32 417, label %27
    i32 396, label %34
    i32 418, label %41
    i32 407, label %48
    i32 422, label %55
    i32 433, label %62
    i32 425, label %63
    i32 426, label %64
    i32 428, label %65
    i32 424, label %66
  ]

6:                                                ; preds = %4
  %7 = getelementptr inbounds nuw i8, ptr %0, i64 8
  %8 = load ptr, ptr %7, align 8
  %9 = getelementptr inbounds nuw i8, ptr %8, i64 36
  %10 = load i8, ptr %9, align 4, !range !4, !noundef !5
  %11 = trunc nuw i8 %10 to i1
  br i1 %11, label %12, label %67

12:                                               ; preds = %6
  tail call void @ExecSeqScanInitializeWorker(ptr noundef nonnull %0, ptr noundef %1) #9
  br label %67

13:                                               ; preds = %4
  %14 = getelementptr inbounds nuw i8, ptr %0, i64 8
  %15 = load ptr, ptr %14, align 8
  %16 = getelementptr inbounds nuw i8, ptr %15, i64 36
  %17 = load i8, ptr %16, align 4, !range !4, !noundef !5
  %18 = trunc nuw i8 %17 to i1
  br i1 %18, label %19, label %67

19:                                               ; preds = %13
  tail call void @ExecIndexScanInitializeWorker(ptr noundef nonnull %0, ptr noundef %1) #9
  br label %67

20:                                               ; preds = %4
  %21 = getelementptr inbounds nuw i8, ptr %0, i64 8
  %22 = load ptr, ptr %21, align 8
  %23 = getelementptr inbounds nuw i8, ptr %22, i64 36
  %24 = load i8, ptr %23, align 4, !range !4, !noundef !5
  %25 = trunc nuw i8 %24 to i1
  br i1 %25, label %26, label %67

26:                                               ; preds = %20
  tail call void @ExecIndexOnlyScanInitializeWorker(ptr noundef nonnull %0, ptr noundef %1) #9
  br label %67

27:                                               ; preds = %4
  %28 = getelementptr inbounds nuw i8, ptr %0, i64 8
  %29 = load ptr, ptr %28, align 8
  %30 = getelementptr inbounds nuw i8, ptr %29, i64 36
  %31 = load i8, ptr %30, align 4, !range !4, !noundef !5
  %32 = trunc nuw i8 %31 to i1
  br i1 %32, label %33, label %67

33:                                               ; preds = %27
  tail call void @ExecForeignScanInitializeWorker(ptr noundef nonnull %0, ptr noundef %1) #9
  br label %67

34:                                               ; preds = %4
  %35 = getelementptr inbounds nuw i8, ptr %0, i64 8
  %36 = load ptr, ptr %35, align 8
  %37 = getelementptr inbounds nuw i8, ptr %36, i64 36
  %38 = load i8, ptr %37, align 4, !range !4, !noundef !5
  %39 = trunc nuw i8 %38 to i1
  br i1 %39, label %40, label %67

40:                                               ; preds = %34
  tail call void @ExecAppendInitializeWorker(ptr noundef nonnull %0, ptr noundef %1) #9
  br label %67

41:                                               ; preds = %4
  %42 = getelementptr inbounds nuw i8, ptr %0, i64 8
  %43 = load ptr, ptr %42, align 8
  %44 = getelementptr inbounds nuw i8, ptr %43, i64 36
  %45 = load i8, ptr %44, align 4, !range !4, !noundef !5
  %46 = trunc nuw i8 %45 to i1
  br i1 %46, label %47, label %67

47:                                               ; preds = %41
  tail call void @ExecCustomScanInitializeWorker(ptr noundef nonnull %0, ptr noundef %1) #9
  br label %67

48:                                               ; preds = %4
  %49 = getelementptr inbounds nuw i8, ptr %0, i64 8
  %50 = load ptr, ptr %49, align 8
  %51 = getelementptr inbounds nuw i8, ptr %50, i64 36
  %52 = load i8, ptr %51, align 4, !range !4, !noundef !5
  %53 = trunc nuw i8 %52 to i1
  br i1 %53, label %54, label %67

54:                                               ; preds = %48
  tail call void @ExecBitmapHeapInitializeWorker(ptr noundef nonnull %0, ptr noundef %1) #9
  br label %67

55:                                               ; preds = %4
  %56 = getelementptr inbounds nuw i8, ptr %0, i64 8
  %57 = load ptr, ptr %56, align 8
  %58 = getelementptr inbounds nuw i8, ptr %57, i64 36
  %59 = load i8, ptr %58, align 4, !range !4, !noundef !5
  %60 = trunc nuw i8 %59 to i1
  br i1 %60, label %61, label %67

61:                                               ; preds = %55
  tail call void @ExecHashJoinInitializeWorker(ptr noundef nonnull %0, ptr noundef %1) #9
  br label %67

62:                                               ; preds = %4
  tail call void @ExecHashInitializeWorker(ptr noundef nonnull %0, ptr noundef %1) #9
  br label %67

63:                                               ; preds = %4
  tail call void @ExecSortInitializeWorker(ptr noundef nonnull %0, ptr noundef %1) #9
  br label %67

64:                                               ; preds = %4
  tail call void @ExecIncrementalSortInitializeWorker(ptr noundef nonnull %0, ptr noundef %1) #9
  br label %67

65:                                               ; preds = %4
  tail call void @ExecAggInitializeWorker(ptr noundef nonnull %0, ptr noundef %1) #9
  br label %67

66:                                               ; preds = %4
  tail call void @ExecMemoizeInitializeWorker(ptr noundef nonnull %0, ptr noundef %1) #9
  br label %67

67:                                               ; preds = %4, %55, %61, %48, %54, %41, %47, %34, %40, %27, %33, %20, %26, %13, %19, %6, %12, %66, %65, %64, %63, %62
  %68 = tail call zeroext i1 @planstate_tree_walker_impl(ptr noundef nonnull %0, ptr noundef nonnull @ExecParallelInitializeWorker, ptr noundef %1) #9
  br label %69

69:                                               ; preds = %2, %67
  %.0 = phi i1 [ %68, %67 ], [ false, %2 ]
  ret i1 %.0
}